target datalayout = "e-m:e-p270:32:32-p271:32:32-p272:64:64-i64:64-i128:128-f80:128-n8:16:32:64-S128"
target triple = "x86_64-pc-linux-gnu"

%"struct.Yosys::RTLIL::IdString" = type { i32 }
%"struct.Yosys::DriveBitPort" = type { ptr, %"struct.Yosys::RTLIL::IdString", i32 }
%"struct.Yosys::DriveChunkPort" = type <{ ptr, %"struct.Yosys::RTLIL::IdString", i32, i32, [4 x i8] }>

; Function Attrs: inlinehint mustprogress nounwind uwtable
define linkonce_odr noundef zeroext i1 @_ZNK5Yosys5RTLIL8IdStringeqERKS1_(ptr noundef nonnull align 4 dereferenceable(4) %0, ptr noundef nonnull align 4 dereferenceable(4) %1) #5 comdat align 2 {
  %3 = alloca ptr, align 8
  %4 = alloca ptr, align 8
  store ptr %0, ptr %3, align 8, !tbaa !68
  store ptr %1, ptr %4, align 8, !tbaa !68
  %5 = load ptr, ptr %3, align 8
  %6 = getelementptr inbounds nuw %"struct.Yosys::RTLIL::IdString", ptr %5, i32 0, i32 0
  %7 = load i32, ptr %6, align 4, !tbaa !70
  %8 = load ptr, ptr %4, align 8, !tbaa !68
  %9 = getelementptr inbounds nuw %"struct.Yosys::RTLIL::IdString", ptr %8, i32 0, i32 0
  %10 = load i32, ptr %9, align 4, !tbaa !70
  %11 = icmp eq i32 %7, %10
  ret i1 %11
}

; Function Attrs: mustprogress uwtable
define noundef zeroext i1 @_ZNK5Yosys14DriveChunkPort10can_appendERKNS_12DriveBitPortE(ptr noundef nonnull align 8 dereferenceable(20) %0, ptr noundef nonnull align 8 dereferenceable(16) %1) #4 align 2 {
  %3 = alloca ptr, align 8
  %4 = alloca ptr, align 8
  store ptr %0, ptr %3, align 8, !tbaa !55
  store ptr %1, ptr %4, align 8, !tbaa !57
  %5 = load ptr, ptr %3, align 8
  %6 = load ptr, ptr %4, align 8, !tbaa !57
  %7 = getelementptr inbounds nuw %"struct.Yosys::DriveBitPort", ptr %6, i32 0, i32 0
  %8 = load ptr, ptr %7, align 8, !tbaa !59
  %9 = getelementptr inbounds nuw %"struct.Yosys::DriveChunkPort", ptr %5, i32 0, i32 0
  %10 = load ptr, ptr %9, align 8, !tbaa !63
  %11 = icmp eq ptr %8, %10
  br i1 %11, label %12, label %27

12:                                               ; preds = %2
  %13 = load ptr, ptr %4, align 8, !tbaa !57
  %14 = getelementptr inbounds nuw %"struct.Yosys::DriveBitPort", ptr %13, i32 0, i32 1
  %15 = getelementptr inbounds nuw %"struct.Yosys::DriveChunkPort", ptr %5, i32 0, i32 1
  %16 = call noundef zeroext i1 @_ZNK5Yosys5RTLIL8IdStringeqERKS1_(ptr noundef nonnull align 4 dereferenceable(4) %14, ptr noundef nonnull align 4 dereferenceable(4) %15)
  br i1 %16, label %17, label %27

17:                                               ; preds = %12
  %18 = load ptr, ptr %4, align 8, !tbaa !57
  %19 = getelementptr inbounds nuw %"struct.Yosys::DriveBitPort", ptr %18, i32 0, i32 2
  %20 = load i32, ptr %19, align 4, !tbaa !65
  %21 = getelementptr inbounds nuw %"struct.Yosys::DriveChunkPort", ptr %5, i32 0, i32 2
  %22 = load i32, ptr %21, align 4, !tbaa !66
  %23 = getelementptr inbounds nuw %"struct.Yosys::DriveChunkPort", ptr %5, i32 0, i32 3
  %24 = load i32, ptr %23, align 8, !tbaa !67
  %25 = add nsw i32 %22, %24
  %26 = icmp eq i32 %20, %25
  br label %27

27:                                               ; preds = %17, %12, %2
  %28 = phi i1 [ false, %12 ], [ false, %2 ], [ %26, %17 ]
  ret i1 %28
}