; Function Attrs: mustprogress nofree norecurse nosync nounwind willreturn memory(argmem: read) uwtable
define noundef zeroext i1 @_ZNK5Yosys14DriveChunkPort10can_appendERKNS_12DriveBitPortE(ptr noundef nonnull readonly align 8 captures(none) dereferenceable(20) %0, ptr noundef nonnull readonly align 8 captures(none) dereferenceable(16) %1) local_unnamed_addr #8 align 2 {
  %3 = load ptr, ptr %1, align 8, !tbaa !35
  %4 = load ptr, ptr %0, align 8, !tbaa !61
  %5 = icmp eq ptr %3, %4
  br i1 %5, label %6, label %21

6:                                                ; preds = %2
  %7 = getelementptr inbounds nuw i8, ptr %1, i64 8
  %8 = getelementptr inbounds nuw i8, ptr %0, i64 8
  %9 = load i32, ptr %7, align 8, !tbaa !39
  %10 = load i32, ptr %8, align 8, !tbaa !39
  %11 = icmp eq i32 %9, %10
  br i1 %11, label %12, label %21

12:                                               ; preds = %6
  %13 = getelementptr inbounds nuw i8, ptr %1, i64 12
  %14 = load i32, ptr %13, align 4, !tbaa !40
  %15 = getelementptr inbounds nuw i8, ptr %0, i64 12
  %16 = load i32, ptr %15, align 4, !tbaa !66
  %17 = getelementptr inbounds nuw i8, ptr %0, i64 16
  %18 = load i32, ptr %17, align 8, !tbaa !78
  %19 = add nsw i32 %18, %16
  %20 = icmp eq i32 %14, %19
  br label %21

21:                                               ; preds = %12, %6, %2
  %22 = phi i1 [ false, %6 ], [ false, %2 ], [ %20, %12 ]
  ret i1 %22
}